target datalayout = "e-m:e-p270:32:32-p271:32:32-p272:64:64-i64:64-i128:128-f80:128-n8:16:32:64-S128"
target triple = "x86_64-pc-linux-gnu"

; Function Attrs: nounwind uwtable
define hidden zeroext i1 @lexbor_str_data_nlocmp_right(ptr noundef %0, ptr noundef %1, i64 noundef %2) #0 {
  %4 = alloca i1, align 1
  %5 = alloca ptr, align 8
  %6 = alloca ptr, align 8
  %7 = alloca i64, align 8
  %8 = alloca i64, align 8
  store ptr %0, ptr %5, align 8
  store ptr %1, ptr %6, align 8
  store i64 %2, ptr %7, align 8
  store i64 0, ptr %8, align 8
  br label %9

9:                                                ; preds = %30, %3
  %10 = load i64, ptr %8, align 8
  %11 = load i64, ptr %7, align 8
  %12 = icmp ult i64 %10, %11
  br i1 %12, label %13, label %33

13:                                               ; preds = %9
  %14 = load ptr, ptr %5, align 8
  %15 = load i64, ptr %8, align 8
  %16 = getelementptr inbounds i8, ptr %14, i64 %15
  %17 = load i8, ptr %16, align 1
  %18 = zext i8 %17 to i32
  %19 = load ptr, ptr %6, align 8
  %20 = load i64, ptr %8, align 8
  %21 = getelementptr inbounds i8, ptr %19, i64 %20
  %22 = load i8, ptr %21, align 1
  %23 = zext i8 %22 to i64
  %24 = getelementptr inbounds [256 x i8], ptr @lexbor_str_res_map_lowercase, i64 0, i64 %23
  %25 = load i8, ptr %24, align 1
  %26 = zext i8 %25 to i32
  %27 = icmp ne i32 %18, %26
  br i1 %27, label %28, label %29

28:                                               ; preds = %13
  store i1 false, ptr %4, align 1
  br label %34

29:                                               ; preds = %13
  br label %30

30:                                               ; preds = %29
  %31 = load i64, ptr %8, align 8
  %32 = add i64 %31, 1
  store i64 %32, ptr %8, align 8
  br label %9

33:                                               ; preds = %9
  store i1 true, ptr %4, align 1
  br label %34

34:                                               ; preds = %33, %28
  %35 = load i1, ptr %4, align 1
  ret i1 %35
}