; Function Attrs: nofree norecurse nosync nounwind memory(argmem: read) uwtable
define hidden zeroext i1 @lexbor_str_data_nlocmp_right(ptr nocapture noundef readonly %0, ptr nocapture noundef readonly %1, i64 noundef %2) local_unnamed_addr #8 {
  %4 = icmp eq i64 %2, 0
  br i1 %4, label %._crit_edge, label %.lr.ph.preheader

.lr.ph.preheader:                                 ; preds = %3
  %5 = load i8, ptr %0, align 1
  %6 = load i8, ptr %1, align 1
  %7 = zext i8 %6 to i64
  %8 = getelementptr inbounds [256 x i8], ptr @lexbor_str_res_map_lowercase, i64 0, i64 %7
  %9 = load i8, ptr %8, align 1
  %.not11 = icmp eq i8 %5, %9
  br i1 %.not11, label %.lr.ph13, label %._crit_edge

.lr.ph13:                                         ; preds = %.lr.ph.preheader, %.lr.ph
  %.0812 = phi i64 [ %10, %.lr.ph ], [ 0, %.lr.ph.preheader ]
  %10 = add nuw i64 %.0812, 1
  %exitcond = icmp eq i64 %10, %2
  br i1 %exitcond, label %._crit_edge.loopexit, label %.lr.ph

.lr.ph:                                           ; preds = %.lr.ph13
  %11 = getelementptr inbounds i8, ptr %0, i64 %10
  %12 = load i8, ptr %11, align 1
  %13 = getelementptr inbounds i8, ptr %1, i64 %10
  %14 = load i8, ptr %13, align 1
  %15 = zext i8 %14 to i64
  %16 = getelementptr inbounds [256 x i8], ptr @lexbor_str_res_map_lowercase, i64 0, i64 %15
  %17 = load i8, ptr %16, align 1
  %.not = icmp eq i8 %12, %17
  br i1 %.not, label %.lr.ph13, label %._crit_edge.loopexit

._crit_edge.loopexit:                             ; preds = %.lr.ph, %.lr.ph13
  %18 = icmp uge i64 %10, %2
  br label %._crit_edge

._crit_edge:                                      ; preds = %._crit_edge.loopexit, %.lr.ph.preheader, %3
  %.lcssa = phi i1 [ true, %3 ], [ false, %.lr.ph.preheader ], [ %18, %._crit_edge.loopexit ]
  ret i1 %.lcssa
}